target datalayout = "e-m:e-p270:32:32-p271:32:32-p272:64:64-i64:64-i128:128-f80:128-n8:16:32:64-S128"
target triple = "x86_64-unknown-linux-gnu"

%"class.std::__cxx11::basic_string" = type { %"struct.std::__cxx11::basic_string<char>::_Alloc_hider", i64, %union.anon }
%"struct.std::__cxx11::basic_string<char>::_Alloc_hider" = type { ptr }
%union.anon = type { i64, [8 x i8] }
%"class.rocksdb::WriteBatch" = type { %"class.rocksdb::WriteBatchBase", %"class.std::unique_ptr.186", %"struct.rocksdb::SavePoint", i8, i8, i8, %"struct.std::atomic", i64, %"class.std::unique_ptr.194", i64, %"class.std::__cxx11::basic_string" }
%"class.rocksdb::WriteBatchBase" = type { ptr }
%"class.std::unique_ptr.186" = type { %"struct.std::__uniq_ptr_data.187" }
%"struct.std::__uniq_ptr_data.187" = type { %"class.std::__uniq_ptr_impl.188" }
%"class.std::__uniq_ptr_impl.188" = type { %"class.std::tuple.189" }
%"class.std::tuple.189" = type { %"struct.std::_Tuple_impl.190" }
%"struct.std::_Tuple_impl.190" = type { %"struct.std::_Head_base.193" }
%"struct.std::_Head_base.193" = type { ptr }
%"struct.rocksdb::SavePoint" = type { i64, i32, i32 }
%"struct.std::atomic" = type { %"struct.std::__atomic_base" }
%"struct.std::__atomic_base" = type { i32 }
%"class.std::unique_ptr.194" = type { %"struct.std::__uniq_ptr_data.195" }
%"struct.std::__uniq_ptr_data.195" = type { %"class.std::__uniq_ptr_impl.196" }
%"class.std::__uniq_ptr_impl.196" = type { %"class.std::tuple.197" }
%"class.std::tuple.197" = type { %"struct.std::_Tuple_impl.198" }
%"struct.std::_Tuple_impl.198" = type { %"struct.std::_Head_base.201" }
%"struct.std::_Head_base.201" = type { ptr }
%class.Handler = type { %"class.rocksdb::WriteBatch::Handler", %"class.rocksdb::WriteBatch", ptr }
%"class.rocksdb::WriteBatch::Handler" = type { ptr }

; Function Attrs: mustprogress nounwind uwtable
define internal void @_ZZN7rocksdb13DBWithTTLImpl5WriteERKNS_12WriteOptionsEPNS_10WriteBatchEEN7HandlerD2Ev(ptr noundef nonnull align 8 dereferenceable(112) %this) unnamed_addr #1 align 2 {
entry:
  %this.addr = alloca ptr, align 8
  store ptr %this, ptr %this.addr, align 8
  %this1 = load ptr, ptr %this.addr, align 8
  store ptr getelementptr inbounds ({ [25 x ptr] }, ptr @_ZTVZN7rocksdb13DBWithTTLImpl5WriteERKNS_12WriteOptionsEPNS_10WriteBatchEE7Handler, i32 0, i32 0, i32 2), ptr %this1, align 8
  %updates_ttl = getelementptr inbounds %class.Handler, ptr %this1, i32 0, i32 1
  call void @_ZN7rocksdb10WriteBatchD1Ev(ptr noundef nonnull align 8 dereferenceable(96) %updates_ttl) #3
  call void @_ZN7rocksdb10WriteBatch7HandlerD2Ev(ptr noundef nonnull align 8 dereferenceable(8) %this1) #3
  ret void
}

; Function Attrs: mustprogress nounwind uwtable
define internal void @_ZZN7rocksdb13DBWithTTLImpl5WriteERKNS_12WriteOptionsEPNS_10WriteBatchEEN7HandlerD0Ev(ptr noundef nonnull align 8 dereferenceable(112) %this) unnamed_addr #1 align 2 {
entry:
  %this.addr = alloca ptr, align 8
  store ptr %this, ptr %this.addr, align 8
  %this1 = load ptr, ptr %this.addr, align 8
  call void @_ZZN7rocksdb13DBWithTTLImpl5WriteERKNS_12WriteOptionsEPNS_10WriteBatchEEN7HandlerD2Ev(ptr noundef nonnull align 8 dereferenceable(112) %this1) #3
  call void @_ZdlPv(ptr noundef %this1) #20
  ret void
}