; Function Attrs: mustprogress nounwind uwtable
define internal void @_ZZN7rocksdb13DBWithTTLImpl5WriteERKNS_12WriteOptionsEPNS_10WriteBatchEEN7HandlerD0Ev(ptr noundef nonnull align 8 dereferenceable(112) %this) unnamed_addr #0 align 2 {
entry:
  store ptr getelementptr inbounds ({ [25 x ptr] }, ptr @_ZTVZN7rocksdb13DBWithTTLImpl5WriteERKNS_12WriteOptionsEPNS_10WriteBatchEE7Handler, i64 0, i32 0, i64 2), ptr %this, align 8
  %updates_ttl.i = getelementptr inbounds i8, ptr %this, i64 8
  tail call void @_ZN7rocksdb10WriteBatchD1Ev(ptr noundef nonnull align 8 dereferenceable(96) %updates_ttl.i) #21
  tail call void @_ZN7rocksdb10WriteBatch7HandlerD2Ev(ptr noundef nonnull align 8 dereferenceable(8) %this) #21
  tail call void @_ZdlPv(ptr noundef nonnull %this) #20
  ret void
}